; Function Attrs: nounwind uwtable
define range(i64 0, 4294967296) i64 @LZ4F_freeDecompressionContext(ptr noundef %0) local_unnamed_addr #5 {
  %.not = icmp eq ptr %0, null
  br i1 %.not, label %LZ4F_free.exit17, label %2

2:                                                ; preds = %1
  %3 = getelementptr inbounds nuw i8, ptr %0, i64 68
  %4 = load i32, ptr %3, align 4, !tbaa !72
  %5 = getelementptr inbounds nuw i8, ptr %0, i64 96
  %6 = load ptr, ptr %5, align 8, !tbaa !73
  %7 = getelementptr i8, ptr %0, i64 16
  %.val12 = load ptr, ptr %7, align 8
  %8 = getelementptr i8, ptr %0, i64 24
  %.val13 = load ptr, ptr %8, align 8
  %9 = icmp eq ptr %6, null
  br i1 %9, label %LZ4F_free.exit, label %10

10:                                               ; preds = %2
  %.not.i = icmp eq ptr %.val12, null
  br i1 %.not.i, label %12, label %11

11:                                               ; preds = %10
  tail call void %.val12(ptr noundef %.val13, ptr noundef nonnull %6) #13
  br label %LZ4F_free.exitthread-pre-split

12:                                               ; preds = %10
  tail call void @free(ptr noundef nonnull %6) #13
  br label %LZ4F_free.exitthread-pre-split

LZ4F_free.exitthread-pre-split:                   ; preds = %12, %11
  %.val10.pr = load ptr, ptr %7, align 8
  %.val11.pre = load ptr, ptr %8, align 8
  br label %LZ4F_free.exit

LZ4F_free.exit:                                   ; preds = %LZ4F_free.exitthread-pre-split, %2
  %.val11 = phi ptr [ %.val11.pre, %LZ4F_free.exitthread-pre-split ], [ %.val13, %2 ]
  %.val10 = phi ptr [ %.val10.pr, %LZ4F_free.exitthread-pre-split ], [ %.val12, %2 ]
  %13 = getelementptr inbounds nuw i8, ptr %0, i64 120
  %14 = load ptr, ptr %13, align 8, !tbaa !74
  %15 = icmp eq ptr %14, null
  br i1 %15, label %19, label %16

16:                                               ; preds = %LZ4F_free.exit
  %.not.i14 = icmp eq ptr %.val10, null
  br i1 %.not.i14, label %18, label %17

17:                                               ; preds = %16
  tail call void %.val10(ptr noundef %.val11, ptr noundef nonnull %14) #13
  br label %19

18:                                               ; preds = %16
  tail call void @free(ptr noundef nonnull %14) #13
  br label %19

19:                                               ; preds = %18, %17, %LZ4F_free.exit
  %.val = load ptr, ptr %7, align 8
  %.not.i16 = icmp eq ptr %.val, null
  br i1 %.not.i16, label %21, label %20

20:                                               ; preds = %19
  %.val9 = load ptr, ptr %8, align 8
  tail call void %.val(ptr noundef %.val9, ptr noundef nonnull %0) #13
  br label %LZ4F_free.exit17

21:                                               ; preds = %19
  tail call void @free(ptr noundef nonnull %0) #13
  br label %LZ4F_free.exit17

LZ4F_free.exit17:                                 ; preds = %21, %20, %1
  %.0.shrunk = phi i32 [ 0, %1 ], [ %4, %20 ], [ %4, %21 ]
  %.0 = zext i32 %.0.shrunk to i64
  ret i64 %.0
}